Certificate:
    Data:
        Version: 3 (0x2)
        Serial Number: 4096 (0x1000)
        Signature Algorithm: sha256WithRSAEncryption
        Issuer: C=FR, ST=Cher, O=INSA
        Validity
            Not Before: Oct  6 10:52:58 2020 GMT
            Not After : Oct  6 10:52:58 2021 GMT
        Subject: C=FR, ST=Cher, O=INSA
        Subject Public Key Info:
            Public Key Algorithm: rsaEncryption
                RSA Public-Key: (2048 bit)
                Modulus:
                    00:b5:2d:40:11:20:c5:d1:3c:30:09:d3:5f:96:53:
                    87:d6:39:2c:2d:01:86:3a:20:aa:4b:eb:08:fd:38:
                    80:90:b9:0c:8e:14:70:86:52:d8:05:62:4f:0d:42:
                    4f:9a:42:4d:b9:37:ad:8f:4a:67:18:2c:d5:cb:c5:
                    8b:72:35:ab:a2:22:3d:66:c2:3d:77:25:53:6a:89:
                    94:59:80:5d:ab:c8:73:ad:0c:cf:e9:74:b0:67:d9:
                    20:7b:ea:28:78:f1:59:8e:5e:db:42:41:1b:6a:03:
                    4d:42:fe:4f:8a:de:53:d9:9e:99:7f:ff:07:9f:ec:
                    cf:83:b4:19:0e:db:d0:03:0e:fc:58:64:14:61:f8:
                    a6:8e:d9:3e:d0:e3:b4:8b:b0:f0:3f:c4:df:1f:c7:
                    2a:9b:c2:5d:dc:1e:be:71:90:d8:50:e7:c3:26:d2:
                    42:1c:33:98:8a:70:88:a9:8b:3b:12:94:98:f4:e1:
                    f0:2a:62:00:16:86:f5:1a:e1:7d:97:b9:18:df:08:
                    ae:5e:1c:e0:30:f5:bf:4e:b8:24:76:61:ff:ad:0e:
                    46:57:0f:82:02:29:9b:ed:76:bb:f9:af:d3:81:ba:
                    a3:37:e8:69:2a:1f:2b:7c:04:27:7c:8f:d0:d3:b2:
                    da:72:22:c8:7f:0c:fb:e0:a0:5d:db:60:f9:0c:8c:
                    8d:bd
                Exponent: 65537 (0x10001)
        X509v3 extensions:
            X509v3 Basic Constraints: 
                CA:FALSE
            Netscape Comment: 
                OpenSSL Generated Certificate
            X509v3 Subject Key Identifier: 
                61:2F:2A:B7:4D:4A:3F:17:6A:F4:18:0B:BA:E4:C3:C1:A3:A2:4A:A3
            X509v3 Authority Key Identifier: 
                keyid:F6:16:9D:9E:C2:2D:4F:07:E0:B3:83:5F:D3:00:E1:41:C5:62:89:63

    Signature Algorithm: sha256WithRSAEncryption
         92:11:1c:c9:37:d7:39:cb:28:f6:3c:13:2e:55:fc:20:34:56:
         9e:6e:f9:54:e2:e6:ff:b0:11:1e:e2:87:98:20:b7:8e:89:cd:
         ea:4c:f8:fe:66:49:2c:19:e2:da:3a:23:cd:5d:78:d9:7a:fc:
         fe:f8:ae:cd:c4:c7:35:90:8c:76:bd:56:04:71:6a:98:d8:7e:
         99:b2:00:41:b5:10:12:6d:85:d8:ad:b3:e2:e1:09:03:e9:0a:
         1e:d5:4d:03:b7:65:b3:26:a5:18:4d:d3:96:f6:9f:5f:9a:26:
         4b:a9:f1:38:2b:98:18:60:46:16:29:82:ec:91:e8:33:30:25:
         89:c6:81:65:84:d5:ec:09:13:5f:48:8d:32:32:8b:d8:6b:ee:
         cc:f3:87:06:b3:ba:42:65:ce:80:29:f3:82:f9:ad:b2:47:32:
         fd:8d:66:a2:bd:5a:4d:3f:ef:74:13:6b:c8:5c:7c:da:e9:5b:
         54:5a:18:22:1c:17:84:9b:3b:1b:13:58:37:54:9c:02:d1:92:
         58:56:a4:a3:f4:b6:1d:86:e1:81:c2:73:94:d9:73:66:e2:13:
         7e:65:6b:17:9f:11:cc:1a:a9:a2:b8:b4:97:b5:7d:23:2d:e5:
         36:b5:d4:0b:0a:83:fb:c4:83:7c:de:e1:13:24:4d:91:18:17:
         44:d4:33:f5
-----BEGIN CERTIFICATE-----
MIIDTTCCAjWgAwIBAgICEAAwDQYJKoZIhvcNAQELBQAwKzELMAkGA1UEBhMCRlIx
DTALBgNVBAgMBENoZXIxDTALBgNVBAoMBElOU0EwHhcNMjAxMDA2MTA1MjU4WhcN
MjExMDA2MTA1MjU4WjArMQswCQYDVQQGEwJGUjENMAsGA1UECAwEQ2hlcjENMAsG
A1UECgwESU5TQTCCASIwDQYJKoZIhvcNAQEBBQADggEPADCCAQoCggEBALUtQBEg
xdE8MAnTX5ZTh9Y5LC0BhjogqkvrCP04gJC5DI4UcIZS2AViTw1CT5pCTbk3rY9K
Zxgs1cvFi3I1q6IiPWbCPXclU2qJlFmAXavIc60Mz+l0sGfZIHvqKHjxWY5e20JB
G2oDTUL+T4reU9memX//B5/sz4O0GQ7b0AMO/FhkFGH4po7ZPtDjtIuw8D/E3x/H
KpvCXdwevnGQ2FDnwybSQhwzmIpwiKmLOxKUmPTh8CpiABaG9RrhfZe5GN8Irl4c
4DD1v064JHZh/60ORlcPggIpm+12u/mv04G6ozfoaSofK3wEJ3yP0NOy2nIiyH8M
++CgXdtg+QyMjb0CAwEAAaN7MHkwCQYDVR0TBAIwADAsBglghkgBhvhCAQ0EHxYd
T3BlblNTTCBHZW5lcmF0ZWQgQ2VydGlmaWNhdGUwHQYDVR0OBBYEFGEvKrdNSj8X
avQYC7rkw8GjokqjMB8GA1UdIwQYMBaAFPYWnZ7CLU8H4LODX9MA4UHFYoljMA0G
CSqGSIb3DQEBCwUAA4IBAQCSERzJN9c5yyj2PBMuVfwgNFaebvlU4ub/sBEe4oeY
ILeOic3qTPj+ZkksGeLaOiPNXXjZevz++K7NxMc1kIx2vVYEcWqY2H6ZsgBBtRAS
bYXYrbPi4QkD6Qoe1U0Dt2WzJqUYTdOW9p9fmiZLqfE4K5gYYEYWKYLskegzMCWJ
xoFlhNXsCRNfSI0yMovYa+7M84cGs7pCZc6AKfOC+a2yRzL9jWaivVpNP+90E2vI
XHza6VtUWhgiHBeEmzsbE1g3VJwC0ZJYVqSj9LYdhuGBwnOU2XNm4hN+ZWsXnxHM
GqmiuLSXtX0jLeU2tdQLCoP7xIN83uETJE2RGBdE1DP1
-----END CERTIFICATE-----
