Certificate:
    Data:
        Version: 3 (0x2)
        Serial Number: 1 (0x1)
        Signature Algorithm: sha256WithRSAEncryption
        Issuer: C=FR, ST=Radius, L=Somewhere, O=Example Inc./emailAddress=admin@example.org, CN=Example Certificate Authority
        Validity
            Not Before: Oct  6 10:12:12 2020 GMT
            Not After : Dec  5 10:12:12 2020 GMT
        Subject: C=FR, ST=Radius, O=Example Inc., CN=Example Server Certificate/emailAddress=admin@example.org
        Subject Public Key Info:
            Public Key Algorithm: rsaEncryption
                RSA Public-Key: (2048 bit)
                Modulus:
                    00:c4:d7:cf:17:dc:d8:6e:a2:96:e8:e8:3b:85:ea:
                    8b:47:a7:7b:5e:84:74:09:cf:11:37:82:04:4d:9b:
                    3d:c1:0c:e8:f6:23:fa:9a:f6:01:e4:48:24:a5:2d:
                    59:e2:1f:f9:34:53:ed:01:c3:3f:b0:d1:9f:53:e7:
                    26:6f:86:ce:a1:95:b2:07:cd:dd:5d:f0:ad:bf:aa:
                    26:dd:6b:03:18:25:8d:2c:ae:dc:e8:96:81:a1:99:
                    97:d5:26:44:22:eb:f9:1c:1a:6f:12:e6:19:a2:7c:
                    2c:99:34:00:9a:0e:c5:dd:ea:89:be:d6:bd:99:2e:
                    1a:5d:04:c4:46:17:61:01:62:63:f1:66:d3:98:15:
                    1f:59:73:4c:cd:9e:b2:04:80:3e:02:bf:5e:a8:a3:
                    d9:e8:21:72:14:5e:a5:15:2b:03:15:20:6d:38:15:
                    e3:f0:40:64:d5:56:20:cc:01:cd:5e:45:a2:06:f8:
                    4c:c1:48:01:3d:59:99:6a:da:94:13:65:78:4e:2b:
                    cc:e8:b5:27:bc:ad:7f:aa:29:ca:f6:6f:5a:52:d6:
                    cb:12:8a:34:6c:92:2d:c2:f2:fb:bc:f1:49:8b:14:
                    8f:ae:ed:75:64:54:c3:9e:93:54:e5:a0:a2:a4:5a:
                    07:b6:ff:ba:c9:df:f3:3c:ca:26:bd:4c:9a:78:6f:
                    9d:2f
                Exponent: 65537 (0x10001)
        X509v3 extensions:
            X509v3 Extended Key Usage: 
                TLS Web Server Authentication
            X509v3 CRL Distribution Points: 

                Full Name:
                  URI:http://www.example.com/example_ca.crl

    Signature Algorithm: sha256WithRSAEncryption
         6b:99:98:ea:41:26:9a:ba:74:7f:8c:4b:e6:8d:9c:71:31:0a:
         db:3a:ae:e9:c7:3b:79:e0:79:f9:59:a5:f5:54:da:be:12:fa:
         b3:7a:fd:d1:8c:bc:50:e4:d1:3b:49:4c:83:fc:c0:12:e7:d6:
         f6:6d:87:9f:14:de:1e:f1:c4:ad:94:05:4a:d1:0f:c2:f4:67:
         24:8b:e0:ec:de:71:22:93:43:8e:8b:45:3e:f7:5c:20:16:fc:
         46:4c:3a:db:cf:17:f9:9b:5b:50:bc:9e:08:5b:fc:d3:fa:4d:
         1a:95:81:c5:6e:07:a4:67:e3:26:9a:01:b3:14:31:2b:fd:3a:
         90:d5:11:2e:00:ee:83:32:bf:e0:20:7f:42:07:b6:1d:3f:38:
         f7:a9:a1:b5:a1:c9:e9:73:21:3f:44:84:ea:08:55:5a:b6:17:
         a5:b0:02:fb:2c:05:59:56:64:ff:d3:fc:db:5d:7d:74:46:67:
         19:5e:37:7f:b1:4c:d5:b1:dc:f4:03:ed:ce:0a:91:93:c3:82:
         68:e5:86:9b:53:8c:49:0a:06:cb:ee:58:50:13:41:9c:fc:f2:
         ae:ca:9d:46:d7:81:dd:c9:6d:f2:bd:43:77:05:0d:05:df:0b:
         63:90:59:3a:42:d4:32:2a:03:92:1a:fc:5b:4f:91:88:05:6f:
         f6:58:3e:0b
-----BEGIN CERTIFICATE-----
MIID2jCCAsKgAwIBAgIBATANBgkqhkiG9w0BAQsFADCBkzELMAkGA1UEBhMCRlIx
DzANBgNVBAgMBlJhZGl1czESMBAGA1UEBwwJU29tZXdoZXJlMRUwEwYDVQQKDAxF
eGFtcGxlIEluYy4xIDAeBgkqhkiG9w0BCQEWEWFkbWluQGV4YW1wbGUub3JnMSYw
JAYDVQQDDB1FeGFtcGxlIENlcnRpZmljYXRlIEF1dGhvcml0eTAeFw0yMDEwMDYx
MDEyMTJaFw0yMDEyMDUxMDEyMTJaMHwxCzAJBgNVBAYTAkZSMQ8wDQYDVQQIDAZS
YWRpdXMxFTATBgNVBAoMDEV4YW1wbGUgSW5jLjEjMCEGA1UEAwwaRXhhbXBsZSBT
ZXJ2ZXIgQ2VydGlmaWNhdGUxIDAeBgkqhkiG9w0BCQEWEWFkbWluQGV4YW1wbGUu
b3JnMIIBIjANBgkqhkiG9w0BAQEFAAOCAQ8AMIIBCgKCAQEAxNfPF9zYbqKW6Og7
heqLR6d7XoR0Cc8RN4IETZs9wQzo9iP6mvYB5EgkpS1Z4h/5NFPtAcM/sNGfU+cm
b4bOoZWyB83dXfCtv6om3WsDGCWNLK7c6JaBoZmX1SZEIuv5HBpvEuYZonwsmTQA
mg7F3eqJvta9mS4aXQTERhdhAWJj8WbTmBUfWXNMzZ6yBIA+Ar9eqKPZ6CFyFF6l
FSsDFSBtOBXj8EBk1VYgzAHNXkWiBvhMwUgBPVmZatqUE2V4TivM6LUnvK1/qinK
9m9aUtbLEoo0bJItwvL7vPFJixSPru11ZFTDnpNU5aCipFoHtv+6yd/zPMomvUya
eG+dLwIDAQABo08wTTATBgNVHSUEDDAKBggrBgEFBQcDATA2BgNVHR8ELzAtMCug
KaAnhiVodHRwOi8vd3d3LmV4YW1wbGUuY29tL2V4YW1wbGVfY2EuY3JsMA0GCSqG
SIb3DQEBCwUAA4IBAQBrmZjqQSaaunR/jEvmjZxxMQrbOq7pxzt54Hn5WaX1VNq+
Evqzev3RjLxQ5NE7SUyD/MAS59b2bYefFN4e8cStlAVK0Q/C9Gcki+Ds3nEik0OO
i0U+91wgFvxGTDrbzxf5m1tQvJ4IW/zT+k0alYHFbgekZ+MmmgGzFDEr/TqQ1REu
AO6DMr/gIH9CB7YdPzj3qaG1ocnpcyE/RITqCFVathelsAL7LAVZVmT/0/zbXX10
RmcZXjd/sUzVsdz0A+3OCpGTw4Jo5YabU4xJCgbL7lhQE0Gc/PKuyp1G14HdyW3y
vUN3BQ0F3wtjkFk6QtQyKgOSGvxbT5GIBW/2WD4L
-----END CERTIFICATE-----
